(i__main__
LogFile
p0
(dp1
S'_installed_files'
p2
(dp3
S'../../CommonSvc/MFSSvc/MFSSvc'
p4
(dp5
S'../../../../../CommonSvc/MFSSvc/MFSSvc/mfspack/boost_serialization/boost_serialization_head.hpp'
p6
S'../../../InstallArea/include/MFSSvc/mfspack/boost_serialization/boost_serialization_head.hpp'
p7
sS'../../../../CommonSvc/MFSSvc/MFSSvc/core/slaveContext.h'
p8
S'../../../InstallArea/include/MFSSvc/core/slaveContext.h'
p9
sS'../../../../../CommonSvc/MFSSvc/MFSSvc/mfspack/boost_serialization/pack.hpp'
p10
S'../../../InstallArea/include/MFSSvc/mfspack/boost_serialization/pack.hpp'
p11
sS'../../../../CommonSvc/MFSSvc/MFSSvc/core/baseContext.hpp'
p12
S'../../../InstallArea/include/MFSSvc/core/baseContext.hpp'
p13
sS'../../../../CommonSvc/MFSSvc/MFSSvc/handler/slave_handler.h'
p14
S'../../../InstallArea/include/MFSSvc/handler/slave_handler.h'
p15
sS'../../../../CommonSvc/MFSSvc/MFSSvc/com/base.h'
p16
S'../../../InstallArea/include/MFSSvc/com/base.h'
p17
sS'../../../../CommonSvc/MFSSvc/MFSSvc/util/blockQueue.hpp'
p18
S'../../../InstallArea/include/MFSSvc/util/blockQueue.hpp'
p19
sS'../../../../CommonSvc/MFSSvc/MFSSvc/util/MFSHashAlg.h'
p20
S'../../../InstallArea/include/MFSSvc/util/MFSHashAlg.h'
p21
sS'../../../../CommonSvc/MFSSvc/MFSSvc/control/internalQueue.h'
p22
S'../../../InstallArea/include/MFSSvc/control/internalQueue.h'
p23
sS'../../../../CommonSvc/MFSSvc/MFSSvc/mfspack/.DS_Store'
p24
S'../../../InstallArea/include/MFSSvc/mfspack/.DS_Store'
p25
sS'../../../../CommonSvc/MFSSvc/MFSSvc/com/nodeAgent.h'
p26
S'../../../InstallArea/include/MFSSvc/com/nodeAgent.h'
p27
sS'../../../../../CommonSvc/MFSSvc/MFSSvc/mfspack/boost_serialization/unpack.hpp'
p28
S'../../../InstallArea/include/MFSSvc/mfspack/boost_serialization/unpack.hpp'
p29
sS'../../../../../CommonSvc/MFSSvc/MFSSvc/mfspack/boost_serialization/traits_util.hpp'
p30
S'../../../InstallArea/include/MFSSvc/mfspack/boost_serialization/traits_util.hpp'
p31
sS'../../../../CommonSvc/MFSSvc/MFSSvc/com/server.h'
p32
S'../../../InstallArea/include/MFSSvc/com/server.h'
p33
sS'../../../CommonSvc/MFSSvc/MFSSvc/MFSSvc.h'
p34
S'../../../InstallArea/include/MFSSvc/MFSSvc.h'
p35
sS'../../../../../CommonSvc/MFSSvc/MFSSvc/mfspack/boost_serialization/comment.hpp'
p36
S'../../../InstallArea/include/MFSSvc/mfspack/boost_serialization/comment.hpp'
p37
sS'../../../../CommonSvc/MFSSvc/MFSSvc/handler/sniper_handler.h'
p38
S'../../../InstallArea/include/MFSSvc/handler/sniper_handler.h'
p39
sS'../../../../../CommonSvc/MFSSvc/MFSSvc/mfspack/boost_serialization/unpark_func.h'
p40
S'../../../InstallArea/include/MFSSvc/mfspack/boost_serialization/unpark_func.h'
p41
sS'../../../../CommonSvc/MFSSvc/MFSSvc/util/threadPool.h'
p42
S'../../../InstallArea/include/MFSSvc/util/threadPool.h'
p43
sS'../../../../CommonSvc/MFSSvc/MFSSvc/util/MFSHash.h'
p44
S'../../../InstallArea/include/MFSSvc/util/MFSHash.h'
p45
sS'../../../../CommonSvc/MFSSvc/MFSSvc/util/file.h'
p46
S'../../../InstallArea/include/MFSSvc/util/file.h'
p47
sS'../../../../CommonSvc/MFSSvc/MFSSvc/control/signal.hpp'
p48
S'../../../InstallArea/include/MFSSvc/control/signal.hpp'
p49
sS'../../../../CommonSvc/MFSSvc/MFSSvc/control/internalComm.h'
p50
S'../../../InstallArea/include/MFSSvc/control/internalComm.h'
p51
sS'../../../../CommonSvc/MFSSvc/MFSSvc/com/comm.hpp'
p52
S'../../../InstallArea/include/MFSSvc/com/comm.hpp'
p53
sS'../../../../CommonSvc/MFSSvc/MFSSvc/control/taskMgr.h'
p54
S'../../../InstallArea/include/MFSSvc/control/taskMgr.h'
p55
sS'../../../../CommonSvc/MFSSvc/MFSSvc/handler/master_handler.h'
p56
S'../../../InstallArea/include/MFSSvc/handler/master_handler.h'
p57
sS'../../../../CommonSvc/MFSSvc/MFSSvc/com/client.h'
p58
S'../../../InstallArea/include/MFSSvc/com/client.h'
p59
sS'../../../../../CommonSvc/MFSSvc/MFSSvc/mfspack/boost_serialization/pack_func.h'
p60
S'../../../InstallArea/include/MFSSvc/mfspack/boost_serialization/pack_func.h'
p61
sS'../../../../CommonSvc/MFSSvc/MFSSvc/core/masterContext.h'
p62
S'../../../InstallArea/include/MFSSvc/core/masterContext.h'
p63
sS'../../../../../CommonSvc/MFSSvc/MFSSvc/mfspack/boost_serialization/pack_util.hpp'
p64
S'../../../InstallArea/include/MFSSvc/mfspack/boost_serialization/pack_util.hpp'
p65
sS'../../../../CommonSvc/MFSSvc/MFSSvc/control/watchDog.h'
p66
S'../../../InstallArea/include/MFSSvc/control/watchDog.h'
p67
sS'../../../CommonSvc/MFSSvc/MFSSvc/MPIService.h'
p68
S'../../../InstallArea/include/MFSSvc/MPIService.h'
p69
sS'../../../../CommonSvc/MFSSvc/MFSSvc/mfspack/mfspack.hpp'
p70
S'../../../InstallArea/include/MFSSvc/mfspack/mfspack.hpp'
p71
ssS'../../../CommonSvc/MFSSvc/amd64_linux26/libMFSSvc.so'
p72
S'../../../InstallArea/amd64_linux26/lib/libMFSSvc.so'
p73
ssb.